
bin/Debug/can_server.elf:     file format elf32-avr

Sections:
Idx Name          Size      VMA       LMA       File off  Algn
  0 .text         00000628  00000000  00000000  00000074  2**1
                  CONTENTS, ALLOC, LOAD, READONLY, CODE
  1 .bss          000000d0  00800100  00800100  0000069c  2**0
                  ALLOC
  2 .stab         000011ac  00000000  00000000  0000069c  2**2
                  CONTENTS, READONLY, DEBUGGING
  3 .stabstr      00001126  00000000  00000000  00001848  2**0
                  CONTENTS, READONLY, DEBUGGING

Disassembly of section .text:

00000000 <__vectors>:
   0:	0c 94 38 00 	jmp	0x70	; 0x70 <__ctors_end>
   4:	0c 94 4a 00 	jmp	0x94	; 0x94 <__bad_interrupt>
   8:	0c 94 4a 00 	jmp	0x94	; 0x94 <__bad_interrupt>
   c:	0c 94 4a 00 	jmp	0x94	; 0x94 <__bad_interrupt>
  10:	0c 94 4a 00 	jmp	0x94	; 0x94 <__bad_interrupt>
  14:	0c 94 4a 00 	jmp	0x94	; 0x94 <__bad_interrupt>
  18:	0c 94 4a 00 	jmp	0x94	; 0x94 <__bad_interrupt>
  1c:	0c 94 4a 00 	jmp	0x94	; 0x94 <__bad_interrupt>
  20:	0c 94 4a 00 	jmp	0x94	; 0x94 <__bad_interrupt>
  24:	0c 94 4a 00 	jmp	0x94	; 0x94 <__bad_interrupt>
  28:	0c 94 4a 00 	jmp	0x94	; 0x94 <__bad_interrupt>
  2c:	0c 94 4a 00 	jmp	0x94	; 0x94 <__bad_interrupt>
  30:	0c 94 4a 00 	jmp	0x94	; 0x94 <__bad_interrupt>
  34:	0c 94 4a 00 	jmp	0x94	; 0x94 <__bad_interrupt>
  38:	0c 94 4a 00 	jmp	0x94	; 0x94 <__bad_interrupt>
  3c:	0c 94 4a 00 	jmp	0x94	; 0x94 <__bad_interrupt>
  40:	0c 94 4a 00 	jmp	0x94	; 0x94 <__bad_interrupt>
  44:	0c 94 4a 00 	jmp	0x94	; 0x94 <__bad_interrupt>
  48:	0c 94 4a 00 	jmp	0x94	; 0x94 <__bad_interrupt>
  4c:	0c 94 4a 00 	jmp	0x94	; 0x94 <__bad_interrupt>
  50:	0c 94 1e 01 	jmp	0x23c	; 0x23c <__vector_20>
  54:	0c 94 da 00 	jmp	0x1b4	; 0x1b4 <__vector_21>
  58:	0c 94 4a 00 	jmp	0x94	; 0x94 <__bad_interrupt>
  5c:	0c 94 4a 00 	jmp	0x94	; 0x94 <__bad_interrupt>
  60:	0c 94 4a 00 	jmp	0x94	; 0x94 <__bad_interrupt>
  64:	0c 94 4a 00 	jmp	0x94	; 0x94 <__bad_interrupt>
  68:	0c 94 4a 00 	jmp	0x94	; 0x94 <__bad_interrupt>
  6c:	0c 94 4a 00 	jmp	0x94	; 0x94 <__bad_interrupt>

00000070 <__ctors_end>:
  70:	11 24       	eor	r1, r1
  72:	1f be       	out	0x3f, r1	; 63
  74:	cf ef       	ldi	r28, 0xFF	; 255
  76:	d0 e1       	ldi	r29, 0x10	; 16
  78:	de bf       	out	0x3e, r29	; 62
  7a:	cd bf       	out	0x3d, r28	; 61

0000007c <__do_clear_bss>:
  7c:	11 e0       	ldi	r17, 0x01	; 1
  7e:	a0 e0       	ldi	r26, 0x00	; 0
  80:	b1 e0       	ldi	r27, 0x01	; 1
  82:	01 c0       	rjmp	.+2      	; 0x86 <.do_clear_bss_start>

00000084 <.do_clear_bss_loop>:
  84:	1d 92       	st	X+, r1

00000086 <.do_clear_bss_start>:
  86:	a0 3d       	cpi	r26, 0xD0	; 208
  88:	b1 07       	cpc	r27, r17
  8a:	e1 f7       	brne	.-8      	; 0x84 <.do_clear_bss_loop>
  8c:	0e 94 4c 00 	call	0x98	; 0x98 <main>
  90:	0c 94 12 03 	jmp	0x624	; 0x624 <_exit>

00000094 <__bad_interrupt>:
  94:	0c 94 00 00 	jmp	0	; 0x0 <__vectors>

00000098 <main>:

	MCP2515_FILTER(0),				// Mask 0 (for group 0)
	MCP2515_FILTER_EXTENDED(0),		// Mask 1 (for group 1)
};*/

int main () {
  98:	6f 92       	push	r6
  9a:	7f 92       	push	r7
  9c:	8f 92       	push	r8
  9e:	9f 92       	push	r9
  a0:	af 92       	push	r10
  a2:	bf 92       	push	r11
  a4:	cf 92       	push	r12
  a6:	df 92       	push	r13
  a8:	ef 92       	push	r14
  aa:	ff 92       	push	r15
  ac:	0f 93       	push	r16
  ae:	1f 93       	push	r17
    init_leds();
  b0:	0e 94 cb 00 	call	0x196	; 0x196 <_Z9init_ledsv>
    uart_init(115200);
  b4:	60 e0       	ldi	r22, 0x00	; 0
  b6:	72 ec       	ldi	r23, 0xC2	; 194
  b8:	81 e0       	ldi	r24, 0x01	; 1
  ba:	90 e0       	ldi	r25, 0x00	; 0
  bc:	0e 94 6d 01 	call	0x2da	; 0x2da <_Z9uart_initl>


    led(true, true);
  c0:	81 e0       	ldi	r24, 0x01	; 1
  c2:	61 e0       	ldi	r22, 0x01	; 1
  c4:	0e 94 ce 00 	call	0x19c	; 0x19c <_Z3ledbb>
	#else
		//round up by default
		__ticks_dc = (uint32_t)(ceil(fabs(__tmp)));
	#endif

	__builtin_avr_delay_cycles(__ticks_dc);
  c8:	8f ef       	ldi	r24, 0xFF	; 255
  ca:	9f e7       	ldi	r25, 0x7F	; 127
  cc:	a6 e1       	ldi	r26, 0x16	; 22
  ce:	81 50       	subi	r24, 0x01	; 1
  d0:	90 40       	sbci	r25, 0x00	; 0
  d2:	a0 40       	sbci	r26, 0x00	; 0
  d4:	e1 f7       	brne	.-8      	; 0xce <main+0x36>
  d6:	00 c0       	rjmp	.+0      	; 0xd8 <main+0x40>
  d8:	00 00       	nop
    _delay_ms(500);
    led(false, false);
  da:	80 e0       	ldi	r24, 0x00	; 0
  dc:	60 e0       	ldi	r22, 0x00	; 0
  de:	0e 94 ce 00 	call	0x19c	; 0x19c <_Z3ledbb>
  e2:	8f ef       	ldi	r24, 0xFF	; 255
  e4:	9f e7       	ldi	r25, 0x7F	; 127
  e6:	a6 e1       	ldi	r26, 0x16	; 22
  e8:	81 50       	subi	r24, 0x01	; 1
  ea:	90 40       	sbci	r25, 0x00	; 0
  ec:	a0 40       	sbci	r26, 0x00	; 0
  ee:	e1 f7       	brne	.-8      	; 0xe8 <main+0x50>
  f0:	00 c0       	rjmp	.+0      	; 0xf2 <main+0x5a>
  f2:	00 00       	nop
    _delay_ms(500);

    for (unsigned long i = 0; i < 100000; i++) {
  f4:	ee 24       	eor	r14, r14
  f6:	ff 24       	eor	r15, r15
  f8:	87 01       	movw	r16, r14
        if (i%100 == 0) _delay_ms(1);
  fa:	94 e6       	ldi	r25, 0x64	; 100
  fc:	a9 2e       	mov	r10, r25
  fe:	b1 2c       	mov	r11, r1
 100:	c1 2c       	mov	r12, r1
 102:	d1 2c       	mov	r13, r1
        if (uart_putc(i%26 + 'a')) led(false, true);
 104:	8a e1       	ldi	r24, 0x1A	; 26
 106:	68 2e       	mov	r6, r24
 108:	71 2c       	mov	r7, r1
 10a:	81 2c       	mov	r8, r1
 10c:	91 2c       	mov	r9, r1
 10e:	1a c0       	rjmp	.+52     	; 0x144 <main+0xac>
 110:	c8 01       	movw	r24, r16
 112:	b7 01       	movw	r22, r14
 114:	a4 01       	movw	r20, r8
 116:	93 01       	movw	r18, r6
 118:	0e 94 f0 02 	call	0x5e0	; 0x5e0 <__udivmodsi4>
 11c:	86 2f       	mov	r24, r22
 11e:	8f 59       	subi	r24, 0x9F	; 159
 120:	0e 94 b3 01 	call	0x366	; 0x366 <_Z9uart_putcc>
 124:	88 23       	and	r24, r24
 126:	f9 f4       	brne	.+62     	; 0x166 <main+0xce>
    led(true, true);
    _delay_ms(500);
    led(false, false);
    _delay_ms(500);

    for (unsigned long i = 0; i < 100000; i++) {
 128:	08 94       	sec
 12a:	e1 1c       	adc	r14, r1
 12c:	f1 1c       	adc	r15, r1
 12e:	01 1d       	adc	r16, r1
 130:	11 1d       	adc	r17, r1
 132:	b0 ea       	ldi	r27, 0xA0	; 160
 134:	eb 16       	cp	r14, r27
 136:	b6 e8       	ldi	r27, 0x86	; 134
 138:	fb 06       	cpc	r15, r27
 13a:	b1 e0       	ldi	r27, 0x01	; 1
 13c:	0b 07       	cpc	r16, r27
 13e:	b0 e0       	ldi	r27, 0x00	; 0
 140:	1b 07       	cpc	r17, r27
 142:	b1 f0       	breq	.+44     	; 0x170 <main+0xd8>
        if (i%100 == 0) _delay_ms(1);
 144:	c8 01       	movw	r24, r16
 146:	b7 01       	movw	r22, r14
 148:	a6 01       	movw	r20, r12
 14a:	95 01       	movw	r18, r10
 14c:	0e 94 f0 02 	call	0x5e0	; 0x5e0 <__udivmodsi4>
 150:	61 15       	cp	r22, r1
 152:	71 05       	cpc	r23, r1
 154:	81 05       	cpc	r24, r1
 156:	91 05       	cpc	r25, r1
 158:	d9 f6       	brne	.-74     	; 0x110 <main+0x78>
 15a:	a6 e6       	ldi	r26, 0x66	; 102
 15c:	be e0       	ldi	r27, 0x0E	; 14
 15e:	11 97       	sbiw	r26, 0x01	; 1
 160:	f1 f7       	brne	.-4      	; 0x15e <main+0xc6>
 162:	00 00       	nop
 164:	d5 cf       	rjmp	.-86     	; 0x110 <main+0x78>
        if (uart_putc(i%26 + 'a')) led(false, true);
 166:	80 e0       	ldi	r24, 0x00	; 0
 168:	61 e0       	ldi	r22, 0x01	; 1
 16a:	0e 94 ce 00 	call	0x19c	; 0x19c <_Z3ledbb>
 16e:	dc cf       	rjmp	.-72     	; 0x128 <main+0x90>
    }

    led(true, true);
 170:	81 e0       	ldi	r24, 0x01	; 1
 172:	61 e0       	ldi	r22, 0x01	; 1
 174:	0e 94 ce 00 	call	0x19c	; 0x19c <_Z3ledbb>

    return 0;
}
 178:	80 e0       	ldi	r24, 0x00	; 0
 17a:	90 e0       	ldi	r25, 0x00	; 0
 17c:	1f 91       	pop	r17
 17e:	0f 91       	pop	r16
 180:	ff 90       	pop	r15
 182:	ef 90       	pop	r14
 184:	df 90       	pop	r13
 186:	cf 90       	pop	r12
 188:	bf 90       	pop	r11
 18a:	af 90       	pop	r10
 18c:	9f 90       	pop	r9
 18e:	8f 90       	pop	r8
 190:	7f 90       	pop	r7
 192:	6f 90       	pop	r6
 194:	08 95       	ret

00000196 <_Z9init_ledsv>:

#include "can.h"
#include "can_testing.h"

void init_leds() {
    DDRB = 0b00000011;  // set pins for LEDs as output
 196:	83 e0       	ldi	r24, 0x03	; 3
 198:	84 b9       	out	0x04, r24	; 4
    return;
}
 19a:	08 95       	ret

0000019c <_Z3ledbb>:

void led (bool green, bool red) {
    if (green) PORTB |= (1 << 0);
 19c:	88 23       	and	r24, r24
 19e:	29 f0       	breq	.+10     	; 0x1aa <_Z3ledbb+0xe>
 1a0:	28 9a       	sbi	0x05, 0	; 5
    else PORTB &= ~(1 << 0);

    if (red) PORTB |= (1 << 1);
 1a2:	66 23       	and	r22, r22
 1a4:	29 f4       	brne	.+10     	; 0x1b0 <_Z3ledbb+0x14>
    else PORTB &= ~(1 << 1);
 1a6:	29 98       	cbi	0x05, 1	; 5
 1a8:	08 95       	ret
    return;
}

void led (bool green, bool red) {
    if (green) PORTB |= (1 << 0);
    else PORTB &= ~(1 << 0);
 1aa:	28 98       	cbi	0x05, 0	; 5

    if (red) PORTB |= (1 << 1);
 1ac:	66 23       	and	r22, r22
 1ae:	d9 f3       	breq	.-10     	; 0x1a6 <_Z3ledbb+0xa>
 1b0:	29 9a       	sbi	0x05, 1	; 5
 1b2:	08 95       	ret

000001b4 <__vector_21>:
 1b4:	1f 92       	push	r1
 1b6:	0f 92       	push	r0
 1b8:	0f b6       	in	r0, 0x3f	; 63
 1ba:	0f 92       	push	r0
 1bc:	11 24       	eor	r1, r1
 1be:	2f 93       	push	r18
 1c0:	3f 93       	push	r19
 1c2:	8f 93       	push	r24
 1c4:	9f 93       	push	r25
 1c6:	ef 93       	push	r30
 1c8:	ff 93       	push	r31
 1ca:	20 91 66 01 	lds	r18, 0x0166
 1ce:	30 91 67 01 	lds	r19, 0x0167
 1d2:	80 91 64 01 	lds	r24, 0x0164
 1d6:	90 91 65 01 	lds	r25, 0x0165
 1da:	28 17       	cp	r18, r24
 1dc:	39 07       	cpc	r19, r25
 1de:	41 f1       	breq	.+80     	; 0x230 <__vector_21+0x7c>
 1e0:	e0 91 66 01 	lds	r30, 0x0166
 1e4:	f0 91 67 01 	lds	r31, 0x0167
 1e8:	e0 50       	subi	r30, 0x00	; 0
 1ea:	ff 4f       	sbci	r31, 0xFF	; 255
 1ec:	80 81       	ld	r24, Z
 1ee:	80 93 c6 00 	sts	0x00C6, r24
 1f2:	80 91 66 01 	lds	r24, 0x0166
 1f6:	90 91 67 01 	lds	r25, 0x0167
 1fa:	01 96       	adiw	r24, 0x01	; 1
 1fc:	90 93 67 01 	sts	0x0167, r25
 200:	80 93 66 01 	sts	0x0166, r24
 204:	80 91 66 01 	lds	r24, 0x0166
 208:	90 91 67 01 	lds	r25, 0x0167
 20c:	84 36       	cpi	r24, 0x64	; 100
 20e:	91 05       	cpc	r25, r1
 210:	24 f0       	brlt	.+8      	; 0x21a <__vector_21+0x66>
 212:	10 92 67 01 	sts	0x0167, r1
 216:	10 92 66 01 	sts	0x0166, r1
 21a:	ff 91       	pop	r31
 21c:	ef 91       	pop	r30
 21e:	9f 91       	pop	r25
 220:	8f 91       	pop	r24
 222:	3f 91       	pop	r19
 224:	2f 91       	pop	r18
 226:	0f 90       	pop	r0
 228:	0f be       	out	0x3f, r0	; 63
 22a:	0f 90       	pop	r0
 22c:	1f 90       	pop	r1
 22e:	18 95       	reti
 230:	80 91 c1 00 	lds	r24, 0x00C1
 234:	8f 7d       	andi	r24, 0xDF	; 223
 236:	80 93 c1 00 	sts	0x00C1, r24
 23a:	ef cf       	rjmp	.-34     	; 0x21a <__vector_21+0x66>

0000023c <__vector_20>:
 23c:	1f 92       	push	r1
 23e:	0f 92       	push	r0
 240:	0f b6       	in	r0, 0x3f	; 63
 242:	0f 92       	push	r0
 244:	11 24       	eor	r1, r1
 246:	2f 93       	push	r18
 248:	3f 93       	push	r19
 24a:	8f 93       	push	r24
 24c:	9f 93       	push	r25
 24e:	ef 93       	push	r30
 250:	ff 93       	push	r31
 252:	80 91 cc 01 	lds	r24, 0x01CC
 256:	90 91 cd 01 	lds	r25, 0x01CD
 25a:	20 91 ce 01 	lds	r18, 0x01CE
 25e:	30 91 cf 01 	lds	r19, 0x01CF
 262:	01 96       	adiw	r24, 0x01	; 1
 264:	82 17       	cp	r24, r18
 266:	93 07       	cpc	r25, r19
 268:	a9 f1       	breq	.+106    	; 0x2d4 <__vector_20+0x98>
 26a:	80 91 ce 01 	lds	r24, 0x01CE
 26e:	90 91 cf 01 	lds	r25, 0x01CF
 272:	00 97       	sbiw	r24, 0x00	; 0
 274:	39 f4       	brne	.+14     	; 0x284 <__vector_20+0x48>
 276:	80 91 cc 01 	lds	r24, 0x01CC
 27a:	90 91 cd 01 	lds	r25, 0x01CD
 27e:	83 36       	cpi	r24, 0x63	; 99
 280:	91 05       	cpc	r25, r1
 282:	41 f1       	breq	.+80     	; 0x2d4 <__vector_20+0x98>
 284:	e0 91 cc 01 	lds	r30, 0x01CC
 288:	f0 91 cd 01 	lds	r31, 0x01CD
 28c:	80 91 c6 00 	lds	r24, 0x00C6
 290:	e8 59       	subi	r30, 0x98	; 152
 292:	fe 4f       	sbci	r31, 0xFE	; 254
 294:	80 83       	st	Z, r24
 296:	80 91 cc 01 	lds	r24, 0x01CC
 29a:	90 91 cd 01 	lds	r25, 0x01CD
 29e:	01 96       	adiw	r24, 0x01	; 1
 2a0:	90 93 cd 01 	sts	0x01CD, r25
 2a4:	80 93 cc 01 	sts	0x01CC, r24
 2a8:	80 91 cc 01 	lds	r24, 0x01CC
 2ac:	90 91 cd 01 	lds	r25, 0x01CD
 2b0:	84 36       	cpi	r24, 0x64	; 100
 2b2:	91 05       	cpc	r25, r1
 2b4:	24 f0       	brlt	.+8      	; 0x2be <__vector_20+0x82>
 2b6:	10 92 cd 01 	sts	0x01CD, r1
 2ba:	10 92 cc 01 	sts	0x01CC, r1
 2be:	ff 91       	pop	r31
 2c0:	ef 91       	pop	r30
 2c2:	9f 91       	pop	r25
 2c4:	8f 91       	pop	r24
 2c6:	3f 91       	pop	r19
 2c8:	2f 91       	pop	r18
 2ca:	0f 90       	pop	r0
 2cc:	0f be       	out	0x3f, r0	; 63
 2ce:	0f 90       	pop	r0
 2d0:	1f 90       	pop	r1
 2d2:	18 95       	reti
 2d4:	80 91 c6 00 	lds	r24, 0x00C6
 2d8:	f2 cf       	rjmp	.-28     	; 0x2be <__vector_20+0x82>

000002da <_Z9uart_initl>:
 2da:	cf 93       	push	r28
 2dc:	df 93       	push	r29
 2de:	9b 01       	movw	r18, r22
 2e0:	ac 01       	movw	r20, r24
 2e2:	c1 ec       	ldi	r28, 0xC1	; 193
 2e4:	d0 e0       	ldi	r29, 0x00	; 0
 2e6:	88 81       	ld	r24, Y
 2e8:	88 60       	ori	r24, 0x08	; 8
 2ea:	88 83       	st	Y, r24
 2ec:	88 81       	ld	r24, Y
 2ee:	80 61       	ori	r24, 0x10	; 16
 2f0:	88 83       	st	Y, r24
 2f2:	22 0f       	add	r18, r18
 2f4:	33 1f       	adc	r19, r19
 2f6:	44 1f       	adc	r20, r20
 2f8:	55 1f       	adc	r21, r21
 2fa:	22 0f       	add	r18, r18
 2fc:	33 1f       	adc	r19, r19
 2fe:	44 1f       	adc	r20, r20
 300:	55 1f       	adc	r21, r21
 302:	22 0f       	add	r18, r18
 304:	33 1f       	adc	r19, r19
 306:	44 1f       	adc	r20, r20
 308:	55 1f       	adc	r21, r21
 30a:	22 0f       	add	r18, r18
 30c:	33 1f       	adc	r19, r19
 30e:	44 1f       	adc	r20, r20
 310:	55 1f       	adc	r21, r21
 312:	60 e0       	ldi	r22, 0x00	; 0
 314:	70 e0       	ldi	r23, 0x00	; 0
 316:	81 ee       	ldi	r24, 0xE1	; 225
 318:	90 e0       	ldi	r25, 0x00	; 0
 31a:	0e 94 f0 02 	call	0x5e0	; 0x5e0 <__udivmodsi4>
 31e:	21 50       	subi	r18, 0x01	; 1
 320:	30 40       	sbci	r19, 0x00	; 0
 322:	83 2f       	mov	r24, r19
 324:	99 27       	eor	r25, r25
 326:	87 fd       	sbrc	r24, 7
 328:	9a 95       	dec	r25
 32a:	80 93 c5 00 	sts	0x00C5, r24
 32e:	20 93 c4 00 	sts	0x00C4, r18
 332:	86 e0       	ldi	r24, 0x06	; 6
 334:	80 93 c2 00 	sts	0x00C2, r24
 338:	78 94       	sei
 33a:	88 81       	ld	r24, Y
 33c:	80 68       	ori	r24, 0x80	; 128
 33e:	88 83       	st	Y, r24
 340:	10 92 67 01 	sts	0x0167, r1
 344:	10 92 66 01 	sts	0x0166, r1
 348:	10 92 65 01 	sts	0x0165, r1
 34c:	10 92 64 01 	sts	0x0164, r1
 350:	10 92 cf 01 	sts	0x01CF, r1
 354:	10 92 ce 01 	sts	0x01CE, r1
 358:	10 92 cd 01 	sts	0x01CD, r1
 35c:	10 92 cc 01 	sts	0x01CC, r1
 360:	df 91       	pop	r29
 362:	cf 91       	pop	r28
 364:	08 95       	ret

00000366 <_Z9uart_putcc>:
 366:	20 91 64 01 	lds	r18, 0x0164
 36a:	30 91 65 01 	lds	r19, 0x0165
 36e:	40 91 66 01 	lds	r20, 0x0166
 372:	50 91 67 01 	lds	r21, 0x0167
 376:	2f 5f       	subi	r18, 0xFF	; 255
 378:	3f 4f       	sbci	r19, 0xFF	; 255
 37a:	24 17       	cp	r18, r20
 37c:	35 07       	cpc	r19, r21
 37e:	81 f1       	breq	.+96     	; 0x3e0 <_Z9uart_putcc+0x7a>
 380:	20 91 66 01 	lds	r18, 0x0166
 384:	30 91 67 01 	lds	r19, 0x0167
 388:	21 15       	cp	r18, r1
 38a:	31 05       	cpc	r19, r1
 38c:	39 f4       	brne	.+14     	; 0x39c <_Z9uart_putcc+0x36>
 38e:	20 91 64 01 	lds	r18, 0x0164
 392:	30 91 65 01 	lds	r19, 0x0165
 396:	23 36       	cpi	r18, 0x63	; 99
 398:	31 05       	cpc	r19, r1
 39a:	21 f1       	breq	.+72     	; 0x3e4 <_Z9uart_putcc+0x7e>
 39c:	e0 91 64 01 	lds	r30, 0x0164
 3a0:	f0 91 65 01 	lds	r31, 0x0165
 3a4:	e0 50       	subi	r30, 0x00	; 0
 3a6:	ff 4f       	sbci	r31, 0xFF	; 255
 3a8:	80 83       	st	Z, r24
 3aa:	80 91 64 01 	lds	r24, 0x0164
 3ae:	90 91 65 01 	lds	r25, 0x0165
 3b2:	01 96       	adiw	r24, 0x01	; 1
 3b4:	90 93 65 01 	sts	0x0165, r25
 3b8:	80 93 64 01 	sts	0x0164, r24
 3bc:	80 91 64 01 	lds	r24, 0x0164
 3c0:	90 91 65 01 	lds	r25, 0x0165
 3c4:	84 36       	cpi	r24, 0x64	; 100
 3c6:	91 05       	cpc	r25, r1
 3c8:	24 f0       	brlt	.+8      	; 0x3d2 <_Z9uart_putcc+0x6c>
 3ca:	10 92 65 01 	sts	0x0165, r1
 3ce:	10 92 64 01 	sts	0x0164, r1
 3d2:	80 91 c1 00 	lds	r24, 0x00C1
 3d6:	80 62       	ori	r24, 0x20	; 32
 3d8:	80 93 c1 00 	sts	0x00C1, r24
 3dc:	80 e0       	ldi	r24, 0x00	; 0
 3de:	08 95       	ret
 3e0:	81 e0       	ldi	r24, 0x01	; 1
 3e2:	08 95       	ret
 3e4:	81 e0       	ldi	r24, 0x01	; 1
 3e6:	08 95       	ret

000003e8 <_Z9uart_getcv>:
 3e8:	20 91 ce 01 	lds	r18, 0x01CE
 3ec:	30 91 cf 01 	lds	r19, 0x01CF
 3f0:	80 91 cc 01 	lds	r24, 0x01CC
 3f4:	90 91 cd 01 	lds	r25, 0x01CD
 3f8:	28 17       	cp	r18, r24
 3fa:	39 07       	cpc	r19, r25
 3fc:	e9 f0       	breq	.+58     	; 0x438 <_Z9uart_getcv+0x50>
 3fe:	e0 91 ce 01 	lds	r30, 0x01CE
 402:	f0 91 cf 01 	lds	r31, 0x01CF
 406:	e8 59       	subi	r30, 0x98	; 152
 408:	fe 4f       	sbci	r31, 0xFE	; 254
 40a:	80 81       	ld	r24, Z
 40c:	20 91 ce 01 	lds	r18, 0x01CE
 410:	30 91 cf 01 	lds	r19, 0x01CF
 414:	2f 5f       	subi	r18, 0xFF	; 255
 416:	3f 4f       	sbci	r19, 0xFF	; 255
 418:	30 93 cf 01 	sts	0x01CF, r19
 41c:	20 93 ce 01 	sts	0x01CE, r18
 420:	20 91 ce 01 	lds	r18, 0x01CE
 424:	30 91 cf 01 	lds	r19, 0x01CF
 428:	24 36       	cpi	r18, 0x64	; 100
 42a:	31 05       	cpc	r19, r1
 42c:	34 f0       	brlt	.+12     	; 0x43a <_Z9uart_getcv+0x52>
 42e:	10 92 cf 01 	sts	0x01CF, r1
 432:	10 92 ce 01 	sts	0x01CE, r1
 436:	08 95       	ret
 438:	80 e0       	ldi	r24, 0x00	; 0
 43a:	08 95       	ret

0000043c <_Z11uart_putstrPc>:
 43c:	dc 01       	movw	r26, r24
 43e:	6c 91       	ld	r22, X
 440:	66 23       	and	r22, r22
 442:	09 f4       	brne	.+2      	; 0x446 <_Z11uart_putstrPc+0xa>
 444:	52 c0       	rjmp	.+164    	; 0x4ea <_Z11uart_putstrPc+0xae>
 446:	20 91 64 01 	lds	r18, 0x0164
 44a:	30 91 65 01 	lds	r19, 0x0165
 44e:	80 91 66 01 	lds	r24, 0x0166
 452:	90 91 67 01 	lds	r25, 0x0167
 456:	2f 5f       	subi	r18, 0xFF	; 255
 458:	3f 4f       	sbci	r19, 0xFF	; 255
 45a:	28 17       	cp	r18, r24
 45c:	39 07       	cpc	r19, r25
 45e:	09 f4       	brne	.+2      	; 0x462 <_Z11uart_putstrPc+0x26>
 460:	40 c0       	rjmp	.+128    	; 0x4e2 <_Z11uart_putstrPc+0xa6>
 462:	11 96       	adiw	r26, 0x01	; 1
 464:	20 91 66 01 	lds	r18, 0x0166
 468:	30 91 67 01 	lds	r19, 0x0167
 46c:	21 15       	cp	r18, r1
 46e:	31 05       	cpc	r19, r1
 470:	39 f4       	brne	.+14     	; 0x480 <_Z11uart_putstrPc+0x44>
 472:	80 91 64 01 	lds	r24, 0x0164
 476:	90 91 65 01 	lds	r25, 0x0165
 47a:	83 36       	cpi	r24, 0x63	; 99
 47c:	91 05       	cpc	r25, r1
 47e:	99 f1       	breq	.+102    	; 0x4e6 <_Z11uart_putstrPc+0xaa>
 480:	e0 91 64 01 	lds	r30, 0x0164
 484:	f0 91 65 01 	lds	r31, 0x0165
 488:	e0 50       	subi	r30, 0x00	; 0
 48a:	ff 4f       	sbci	r31, 0xFF	; 255
 48c:	60 83       	st	Z, r22
 48e:	20 91 64 01 	lds	r18, 0x0164
 492:	30 91 65 01 	lds	r19, 0x0165
 496:	2f 5f       	subi	r18, 0xFF	; 255
 498:	3f 4f       	sbci	r19, 0xFF	; 255
 49a:	30 93 65 01 	sts	0x0165, r19
 49e:	20 93 64 01 	sts	0x0164, r18
 4a2:	80 91 64 01 	lds	r24, 0x0164
 4a6:	90 91 65 01 	lds	r25, 0x0165
 4aa:	84 36       	cpi	r24, 0x64	; 100
 4ac:	91 05       	cpc	r25, r1
 4ae:	24 f0       	brlt	.+8      	; 0x4b8 <_Z11uart_putstrPc+0x7c>
 4b0:	10 92 65 01 	sts	0x0165, r1
 4b4:	10 92 64 01 	sts	0x0164, r1
 4b8:	80 91 c1 00 	lds	r24, 0x00C1
 4bc:	80 62       	ori	r24, 0x20	; 32
 4be:	80 93 c1 00 	sts	0x00C1, r24
 4c2:	6d 91       	ld	r22, X+
 4c4:	66 23       	and	r22, r22
 4c6:	89 f0       	breq	.+34     	; 0x4ea <_Z11uart_putstrPc+0xae>
 4c8:	20 91 64 01 	lds	r18, 0x0164
 4cc:	30 91 65 01 	lds	r19, 0x0165
 4d0:	40 91 66 01 	lds	r20, 0x0166
 4d4:	50 91 67 01 	lds	r21, 0x0167
 4d8:	2f 5f       	subi	r18, 0xFF	; 255
 4da:	3f 4f       	sbci	r19, 0xFF	; 255
 4dc:	24 17       	cp	r18, r20
 4de:	35 07       	cpc	r19, r21
 4e0:	09 f6       	brne	.-126    	; 0x464 <_Z11uart_putstrPc+0x28>
 4e2:	81 e0       	ldi	r24, 0x01	; 1
 4e4:	08 95       	ret
 4e6:	81 e0       	ldi	r24, 0x01	; 1
 4e8:	08 95       	ret
 4ea:	80 e0       	ldi	r24, 0x00	; 0
 4ec:	08 95       	ret

000004ee <_Z14uart_isnewdatav>:
 4ee:	40 91 ce 01 	lds	r20, 0x01CE
 4f2:	50 91 cf 01 	lds	r21, 0x01CF
 4f6:	20 91 cc 01 	lds	r18, 0x01CC
 4fa:	30 91 cd 01 	lds	r19, 0x01CD
 4fe:	81 e0       	ldi	r24, 0x01	; 1
 500:	42 17       	cp	r20, r18
 502:	53 07       	cpc	r21, r19
 504:	09 f0       	breq	.+2      	; 0x508 <_Z14uart_isnewdatav+0x1a>
 506:	08 95       	ret
 508:	80 e0       	ldi	r24, 0x00	; 0
 50a:	08 95       	ret

0000050c <_Z9uart_readPci>:
 50c:	16 16       	cp	r1, r22
 50e:	17 06       	cpc	r1, r23
 510:	e4 f5       	brge	.+120    	; 0x58a <_Z9uart_readPci+0x7e>
 512:	40 91 ce 01 	lds	r20, 0x01CE
 516:	50 91 cf 01 	lds	r21, 0x01CF
 51a:	20 91 cc 01 	lds	r18, 0x01CC
 51e:	30 91 cd 01 	lds	r19, 0x01CD
 522:	42 17       	cp	r20, r18
 524:	53 07       	cpc	r21, r19
 526:	a9 f1       	breq	.+106    	; 0x592 <_Z9uart_readPci+0x86>
 528:	a8 2f       	mov	r26, r24
 52a:	b9 2f       	mov	r27, r25
 52c:	20 e0       	ldi	r18, 0x00	; 0
 52e:	30 e0       	ldi	r19, 0x00	; 0
 530:	0b c0       	rjmp	.+22     	; 0x548 <_Z9uart_readPci+0x3c>
 532:	40 91 ce 01 	lds	r20, 0x01CE
 536:	50 91 cf 01 	lds	r21, 0x01CF
 53a:	80 91 cc 01 	lds	r24, 0x01CC
 53e:	90 91 cd 01 	lds	r25, 0x01CD
 542:	48 17       	cp	r20, r24
 544:	59 07       	cpc	r21, r25
 546:	19 f1       	breq	.+70     	; 0x58e <_Z9uart_readPci+0x82>
 548:	e0 91 ce 01 	lds	r30, 0x01CE
 54c:	f0 91 cf 01 	lds	r31, 0x01CF
 550:	e8 59       	subi	r30, 0x98	; 152
 552:	fe 4f       	sbci	r31, 0xFE	; 254
 554:	40 81       	ld	r20, Z
 556:	80 91 ce 01 	lds	r24, 0x01CE
 55a:	90 91 cf 01 	lds	r25, 0x01CF
 55e:	01 96       	adiw	r24, 0x01	; 1
 560:	90 93 cf 01 	sts	0x01CF, r25
 564:	80 93 ce 01 	sts	0x01CE, r24
 568:	80 91 ce 01 	lds	r24, 0x01CE
 56c:	90 91 cf 01 	lds	r25, 0x01CF
 570:	84 36       	cpi	r24, 0x64	; 100
 572:	91 05       	cpc	r25, r1
 574:	24 f0       	brlt	.+8      	; 0x57e <_Z9uart_readPci+0x72>
 576:	10 92 cf 01 	sts	0x01CF, r1
 57a:	10 92 ce 01 	sts	0x01CE, r1
 57e:	4d 93       	st	X+, r20
 580:	2f 5f       	subi	r18, 0xFF	; 255
 582:	3f 4f       	sbci	r19, 0xFF	; 255
 584:	26 17       	cp	r18, r22
 586:	37 07       	cpc	r19, r23
 588:	a4 f2       	brlt	.-88     	; 0x532 <_Z9uart_readPci+0x26>
 58a:	80 e0       	ldi	r24, 0x00	; 0
 58c:	08 95       	ret
 58e:	81 e0       	ldi	r24, 0x01	; 1
 590:	08 95       	ret
 592:	81 e0       	ldi	r24, 0x01	; 1
 594:	08 95       	ret

00000596 <_Z10uart_countv>:
 596:	20 91 ce 01 	lds	r18, 0x01CE
 59a:	30 91 cf 01 	lds	r19, 0x01CF
 59e:	80 91 cc 01 	lds	r24, 0x01CC
 5a2:	90 91 cd 01 	lds	r25, 0x01CD
 5a6:	82 17       	cp	r24, r18
 5a8:	93 07       	cpc	r25, r19
 5aa:	74 f4       	brge	.+28     	; 0x5c8 <_Z10uart_countv+0x32>
 5ac:	80 91 ce 01 	lds	r24, 0x01CE
 5b0:	90 91 cf 01 	lds	r25, 0x01CF
 5b4:	20 91 cc 01 	lds	r18, 0x01CC
 5b8:	30 91 cd 01 	lds	r19, 0x01CD
 5bc:	2c 59       	subi	r18, 0x9C	; 156
 5be:	3f 4f       	sbci	r19, 0xFF	; 255
 5c0:	28 1b       	sub	r18, r24
 5c2:	39 0b       	sbc	r19, r25
 5c4:	c9 01       	movw	r24, r18
 5c6:	08 95       	ret
 5c8:	20 91 cc 01 	lds	r18, 0x01CC
 5cc:	30 91 cd 01 	lds	r19, 0x01CD
 5d0:	80 91 ce 01 	lds	r24, 0x01CE
 5d4:	90 91 cf 01 	lds	r25, 0x01CF
 5d8:	28 1b       	sub	r18, r24
 5da:	39 0b       	sbc	r19, r25
 5dc:	c9 01       	movw	r24, r18
 5de:	08 95       	ret

000005e0 <__udivmodsi4>:
 5e0:	a1 e2       	ldi	r26, 0x21	; 33
 5e2:	1a 2e       	mov	r1, r26
 5e4:	aa 1b       	sub	r26, r26
 5e6:	bb 1b       	sub	r27, r27
 5e8:	fd 01       	movw	r30, r26
 5ea:	0d c0       	rjmp	.+26     	; 0x606 <__udivmodsi4_ep>

000005ec <__udivmodsi4_loop>:
 5ec:	aa 1f       	adc	r26, r26
 5ee:	bb 1f       	adc	r27, r27
 5f0:	ee 1f       	adc	r30, r30
 5f2:	ff 1f       	adc	r31, r31
 5f4:	a2 17       	cp	r26, r18
 5f6:	b3 07       	cpc	r27, r19
 5f8:	e4 07       	cpc	r30, r20
 5fa:	f5 07       	cpc	r31, r21
 5fc:	20 f0       	brcs	.+8      	; 0x606 <__udivmodsi4_ep>
 5fe:	a2 1b       	sub	r26, r18
 600:	b3 0b       	sbc	r27, r19
 602:	e4 0b       	sbc	r30, r20
 604:	f5 0b       	sbc	r31, r21

00000606 <__udivmodsi4_ep>:
 606:	66 1f       	adc	r22, r22
 608:	77 1f       	adc	r23, r23
 60a:	88 1f       	adc	r24, r24
 60c:	99 1f       	adc	r25, r25
 60e:	1a 94       	dec	r1
 610:	69 f7       	brne	.-38     	; 0x5ec <__udivmodsi4_loop>
 612:	60 95       	com	r22
 614:	70 95       	com	r23
 616:	80 95       	com	r24
 618:	90 95       	com	r25
 61a:	9b 01       	movw	r18, r22
 61c:	ac 01       	movw	r20, r24
 61e:	bd 01       	movw	r22, r26
 620:	cf 01       	movw	r24, r30
 622:	08 95       	ret

00000624 <_exit>:
 624:	f8 94       	cli

00000626 <__stop_program>:
 626:	ff cf       	rjmp	.-2      	; 0x626 <__stop_program>
