
can_testprogram.elf:     file format elf32-avr

Sections:
Idx Name          Size      VMA       LMA       File off  Algn
  0 .data         00000020  00800100  00000598  0000060c  2**0
                  CONTENTS, ALLOC, LOAD, DATA
  1 .text         00000598  00000000  00000000  00000074  2**1
                  CONTENTS, ALLOC, LOAD, READONLY, CODE
  2 .stab         000006cc  00000000  00000000  0000062c  2**2
                  CONTENTS, READONLY, DEBUGGING
  3 .stabstr      00000054  00000000  00000000  00000cf8  2**0
                  CONTENTS, READONLY, DEBUGGING
  4 .comment      00000011  00000000  00000000  00000d4c  2**0
                  CONTENTS, READONLY
  5 .debug_aranges 00000120  00000000  00000000  00000d5d  2**0
                  CONTENTS, READONLY, DEBUGGING
  6 .debug_pubnames 000001cc  00000000  00000000  00000e7d  2**0
                  CONTENTS, READONLY, DEBUGGING
  7 .debug_info   00000e89  00000000  00000000  00001049  2**0
                  CONTENTS, READONLY, DEBUGGING
  8 .debug_abbrev 0000088f  00000000  00000000  00001ed2  2**0
                  CONTENTS, READONLY, DEBUGGING
  9 .debug_line   00000c5d  00000000  00000000  00002761  2**0
                  CONTENTS, READONLY, DEBUGGING
 10 .debug_frame  00000194  00000000  00000000  000033c0  2**2
                  CONTENTS, READONLY, DEBUGGING
 11 .debug_str    00000400  00000000  00000000  00003554  2**0
                  CONTENTS, READONLY, DEBUGGING
 12 .debug_loc    0000045a  00000000  00000000  00003954  2**0
                  CONTENTS, READONLY, DEBUGGING
 13 .debug_ranges 00000030  00000000  00000000  00003dae  2**0
                  CONTENTS, READONLY, DEBUGGING

Disassembly of section .text:

00000000 <__vectors>:
   0:	0c 94 44 00 	jmp	0x88	; 0x88 <__ctors_end>
   4:	0c 94 59 00 	jmp	0xb2	; 0xb2 <__bad_interrupt>
   8:	0c 94 59 00 	jmp	0xb2	; 0xb2 <__bad_interrupt>
   c:	0c 94 59 00 	jmp	0xb2	; 0xb2 <__bad_interrupt>
  10:	0c 94 59 00 	jmp	0xb2	; 0xb2 <__bad_interrupt>
  14:	0c 94 59 00 	jmp	0xb2	; 0xb2 <__bad_interrupt>
  18:	0c 94 59 00 	jmp	0xb2	; 0xb2 <__bad_interrupt>
  1c:	0c 94 59 00 	jmp	0xb2	; 0xb2 <__bad_interrupt>
  20:	0c 94 59 00 	jmp	0xb2	; 0xb2 <__bad_interrupt>
  24:	0c 94 59 00 	jmp	0xb2	; 0xb2 <__bad_interrupt>
  28:	0c 94 59 00 	jmp	0xb2	; 0xb2 <__bad_interrupt>
  2c:	0c 94 59 00 	jmp	0xb2	; 0xb2 <__bad_interrupt>
  30:	0c 94 59 00 	jmp	0xb2	; 0xb2 <__bad_interrupt>
  34:	0c 94 59 00 	jmp	0xb2	; 0xb2 <__bad_interrupt>
  38:	0c 94 59 00 	jmp	0xb2	; 0xb2 <__bad_interrupt>
  3c:	0c 94 59 00 	jmp	0xb2	; 0xb2 <__bad_interrupt>
  40:	0c 94 59 00 	jmp	0xb2	; 0xb2 <__bad_interrupt>
  44:	0c 94 59 00 	jmp	0xb2	; 0xb2 <__bad_interrupt>
  48:	0c 94 59 00 	jmp	0xb2	; 0xb2 <__bad_interrupt>
  4c:	0c 94 59 00 	jmp	0xb2	; 0xb2 <__bad_interrupt>
  50:	0c 94 59 00 	jmp	0xb2	; 0xb2 <__bad_interrupt>
  54:	0c 94 59 00 	jmp	0xb2	; 0xb2 <__bad_interrupt>
  58:	0c 94 59 00 	jmp	0xb2	; 0xb2 <__bad_interrupt>
  5c:	0c 94 59 00 	jmp	0xb2	; 0xb2 <__bad_interrupt>
  60:	0c 94 59 00 	jmp	0xb2	; 0xb2 <__bad_interrupt>
  64:	0c 94 59 00 	jmp	0xb2	; 0xb2 <__bad_interrupt>
  68:	0c 94 59 00 	jmp	0xb2	; 0xb2 <__bad_interrupt>
  6c:	0c 94 59 00 	jmp	0xb2	; 0xb2 <__bad_interrupt>

00000070 <_mcp2515_cnf>:
  70:	04 b6 e7 04 b6 d3 04 b6 c7 04 b6 c3 02 90 07 03     ................
  80:	ac 81 03 ac 80 02 90 00                             ........

00000088 <__ctors_end>:
  88:	11 24       	eor	r1, r1
  8a:	1f be       	out	0x3f, r1	; 63
  8c:	cf ef       	ldi	r28, 0xFF	; 255
  8e:	d0 e1       	ldi	r29, 0x10	; 16
  90:	de bf       	out	0x3e, r29	; 62
  92:	cd bf       	out	0x3d, r28	; 61

00000094 <__do_copy_data>:
  94:	11 e0       	ldi	r17, 0x01	; 1
  96:	a0 e0       	ldi	r26, 0x00	; 0
  98:	b1 e0       	ldi	r27, 0x01	; 1
  9a:	e8 e9       	ldi	r30, 0x98	; 152
  9c:	f5 e0       	ldi	r31, 0x05	; 5
  9e:	02 c0       	rjmp	.+4      	; 0xa4 <__do_copy_data+0x10>
  a0:	05 90       	lpm	r0, Z+
  a2:	0d 92       	st	X+, r0
  a4:	a0 32       	cpi	r26, 0x20	; 32
  a6:	b1 07       	cpc	r27, r17
  a8:	d9 f7       	brne	.-10     	; 0xa0 <__do_copy_data+0xc>
  aa:	0e 94 87 02 	call	0x50e	; 0x50e <main>
  ae:	0c 94 ca 02 	jmp	0x594	; 0x594 <_exit>

000000b2 <__bad_interrupt>:
  b2:	0c 94 00 00 	jmp	0	; 0x0 <__vectors>

000000b6 <mcp2515_read_status>:
  b6:	c4 98       	cbi	0x18, 4	; 24
  b8:	0e 94 82 02 	call	0x504	; 0x504 <spi_putc>
  bc:	8f ef       	ldi	r24, 0xFF	; 255
  be:	0e 94 82 02 	call	0x504	; 0x504 <spi_putc>
  c2:	c4 9a       	sbi	0x18, 4	; 24
  c4:	08 95       	ret

000000c6 <mcp2515_bit_modify>:
  c6:	ff 92       	push	r15
  c8:	0f 93       	push	r16
  ca:	1f 93       	push	r17
  cc:	18 2f       	mov	r17, r24
  ce:	06 2f       	mov	r16, r22
  d0:	f4 2e       	mov	r15, r20
  d2:	c4 98       	cbi	0x18, 4	; 24
  d4:	85 e0       	ldi	r24, 0x05	; 5
  d6:	0e 94 82 02 	call	0x504	; 0x504 <spi_putc>
  da:	81 2f       	mov	r24, r17
  dc:	0e 94 82 02 	call	0x504	; 0x504 <spi_putc>
  e0:	80 2f       	mov	r24, r16
  e2:	0e 94 82 02 	call	0x504	; 0x504 <spi_putc>
  e6:	8f 2d       	mov	r24, r15
  e8:	0e 94 82 02 	call	0x504	; 0x504 <spi_putc>
  ec:	c4 9a       	sbi	0x18, 4	; 24
  ee:	1f 91       	pop	r17
  f0:	0f 91       	pop	r16
  f2:	ff 90       	pop	r15
  f4:	08 95       	ret

000000f6 <mcp2515_read_register>:
  f6:	1f 93       	push	r17
  f8:	18 2f       	mov	r17, r24
  fa:	c4 98       	cbi	0x18, 4	; 24
  fc:	83 e0       	ldi	r24, 0x03	; 3
  fe:	0e 94 82 02 	call	0x504	; 0x504 <spi_putc>
 102:	81 2f       	mov	r24, r17
 104:	0e 94 82 02 	call	0x504	; 0x504 <spi_putc>
 108:	8f ef       	ldi	r24, 0xFF	; 255
 10a:	0e 94 82 02 	call	0x504	; 0x504 <spi_putc>
 10e:	c4 9a       	sbi	0x18, 4	; 24
 110:	1f 91       	pop	r17
 112:	08 95       	ret

00000114 <mcp2515_write_register>:
 114:	0f 93       	push	r16
 116:	1f 93       	push	r17
 118:	18 2f       	mov	r17, r24
 11a:	06 2f       	mov	r16, r22
 11c:	c4 98       	cbi	0x18, 4	; 24
 11e:	82 e0       	ldi	r24, 0x02	; 2
 120:	0e 94 82 02 	call	0x504	; 0x504 <spi_putc>
 124:	81 2f       	mov	r24, r17
 126:	0e 94 82 02 	call	0x504	; 0x504 <spi_putc>
 12a:	80 2f       	mov	r24, r16
 12c:	0e 94 82 02 	call	0x504	; 0x504 <spi_putc>
 130:	c4 9a       	sbi	0x18, 4	; 24
 132:	1f 91       	pop	r17
 134:	0f 91       	pop	r16
 136:	08 95       	ret

00000138 <can_init>:
 138:	0f 93       	push	r16
 13a:	1f 93       	push	r17
 13c:	cf 93       	push	r28
 13e:	df 93       	push	r29
 140:	18 2f       	mov	r17, r24
 142:	88 30       	cpi	r24, 0x08	; 8
 144:	08 f0       	brcs	.+2      	; 0x148 <can_init+0x10>
 146:	55 c0       	rjmp	.+170    	; 0x1f2 <can_init+0xba>
 148:	c4 9a       	sbi	0x18, 4	; 24
 14a:	bc 9a       	sbi	0x17, 4	; 23
 14c:	c7 98       	cbi	0x18, 7	; 24
 14e:	c5 98       	cbi	0x18, 5	; 24
 150:	c6 98       	cbi	0x18, 6	; 24
 152:	bf 9a       	sbi	0x17, 7	; 23
 154:	bd 9a       	sbi	0x17, 5	; 23
 156:	be 98       	cbi	0x17, 6	; 23
 158:	0e 94 7d 02 	call	0x4fa	; 0x4fa <mcp2515_spi_init>
 15c:	c4 98       	cbi	0x18, 4	; 24
 15e:	80 ec       	ldi	r24, 0xC0	; 192
 160:	0e 94 82 02 	call	0x504	; 0x504 <spi_putc>
 164:	86 e6       	ldi	r24, 0x66	; 102
 166:	9e e0       	ldi	r25, 0x0E	; 14
 168:	01 97       	sbiw	r24, 0x01	; 1
 16a:	f1 f7       	brne	.-4      	; 0x168 <can_init+0x30>
 16c:	c4 9a       	sbi	0x18, 4	; 24
 16e:	80 e0       	ldi	r24, 0x00	; 0
 170:	90 e9       	ldi	r25, 0x90	; 144
 172:	01 97       	sbiw	r24, 0x01	; 1
 174:	f1 f7       	brne	.-4      	; 0x172 <can_init+0x3a>
 176:	c4 98       	cbi	0x18, 4	; 24
 178:	82 e0       	ldi	r24, 0x02	; 2
 17a:	0e 94 82 02 	call	0x504	; 0x504 <spi_putc>
 17e:	88 e2       	ldi	r24, 0x28	; 40
 180:	0e 94 82 02 	call	0x504	; 0x504 <spi_putc>
 184:	e3 e0       	ldi	r30, 0x03	; 3
 186:	1e 9f       	mul	r17, r30
 188:	e0 01       	movw	r28, r0
 18a:	11 24       	eor	r1, r1
 18c:	fe 01       	movw	r30, r28
 18e:	e0 59       	subi	r30, 0x90	; 144
 190:	ff 4f       	sbci	r31, 0xFF	; 255
 192:	e4 91       	lpm	r30, Z+
 194:	8e 2f       	mov	r24, r30
 196:	0e 94 82 02 	call	0x504	; 0x504 <spi_putc>
 19a:	fe 01       	movw	r30, r28
 19c:	ef 58       	subi	r30, 0x8F	; 143
 19e:	ff 4f       	sbci	r31, 0xFF	; 255
 1a0:	04 91       	lpm	r16, Z+
 1a2:	80 2f       	mov	r24, r16
 1a4:	0e 94 82 02 	call	0x504	; 0x504 <spi_putc>
 1a8:	ce 58       	subi	r28, 0x8E	; 142
 1aa:	df 4f       	sbci	r29, 0xFF	; 255
 1ac:	fe 01       	movw	r30, r28
 1ae:	84 91       	lpm	r24, Z+
 1b0:	0e 94 82 02 	call	0x504	; 0x504 <spi_putc>
 1b4:	83 e0       	ldi	r24, 0x03	; 3
 1b6:	0e 94 82 02 	call	0x504	; 0x504 <spi_putc>
 1ba:	c4 9a       	sbi	0x18, 4	; 24
 1bc:	8d e0       	ldi	r24, 0x0D	; 13
 1be:	60 e0       	ldi	r22, 0x00	; 0
 1c0:	0e 94 8a 00 	call	0x114	; 0x114 <mcp2515_write_register>
 1c4:	ba 98       	cbi	0x17, 2	; 23
 1c6:	c2 9a       	sbi	0x18, 2	; 24
 1c8:	8c e0       	ldi	r24, 0x0C	; 12
 1ca:	60 e0       	ldi	r22, 0x00	; 0
 1cc:	0e 94 8a 00 	call	0x114	; 0x114 <mcp2515_write_register>
 1d0:	89 e2       	ldi	r24, 0x29	; 41
 1d2:	0e 94 7b 00 	call	0xf6	; 0xf6 <mcp2515_read_register>
 1d6:	18 2f       	mov	r17, r24
 1d8:	8f e0       	ldi	r24, 0x0F	; 15
 1da:	60 e0       	ldi	r22, 0x00	; 0
 1dc:	0e 94 8a 00 	call	0x114	; 0x114 <mcp2515_write_register>
 1e0:	10 17       	cp	r17, r16
 1e2:	39 f4       	brne	.+14     	; 0x1f2 <can_init+0xba>
 1e4:	8e e0       	ldi	r24, 0x0E	; 14
 1e6:	0e 94 7b 00 	call	0xf6	; 0xf6 <mcp2515_read_register>
 1ea:	80 7e       	andi	r24, 0xE0	; 224
 1ec:	d9 f7       	brne	.-10     	; 0x1e4 <can_init+0xac>
 1ee:	81 e0       	ldi	r24, 0x01	; 1
 1f0:	01 c0       	rjmp	.+2      	; 0x1f4 <can_init+0xbc>
 1f2:	80 e0       	ldi	r24, 0x00	; 0
 1f4:	df 91       	pop	r29
 1f6:	cf 91       	pop	r28
 1f8:	1f 91       	pop	r17
 1fa:	0f 91       	pop	r16
 1fc:	08 95       	ret

000001fe <can_check_message>:
 1fe:	86 b3       	in	r24, 0x16	; 22
 200:	86 95       	lsr	r24
 202:	86 95       	lsr	r24
 204:	80 95       	com	r24
 206:	81 70       	andi	r24, 0x01	; 1
 208:	08 95       	ret

0000020a <can_check_free_buffer>:
 20a:	80 ea       	ldi	r24, 0xA0	; 160
 20c:	0e 94 5b 00 	call	0xb6	; 0xb6 <mcp2515_read_status>
 210:	90 e0       	ldi	r25, 0x00	; 0
 212:	84 75       	andi	r24, 0x54	; 84
 214:	84 35       	cpi	r24, 0x54	; 84
 216:	09 f0       	breq	.+2      	; 0x21a <can_check_free_buffer+0x10>
 218:	91 e0       	ldi	r25, 0x01	; 1
 21a:	89 2f       	mov	r24, r25
 21c:	08 95       	ret

0000021e <can_get_message>:
 21e:	cf 92       	push	r12
 220:	df 92       	push	r13
 222:	ff 92       	push	r15
 224:	0f 93       	push	r16
 226:	1f 93       	push	r17
 228:	cf 93       	push	r28
 22a:	df 93       	push	r29
 22c:	ec 01       	movw	r28, r24
 22e:	80 eb       	ldi	r24, 0xB0	; 176
 230:	0e 94 5b 00 	call	0xb6	; 0xb6 <mcp2515_read_status>
 234:	f8 2e       	mov	r15, r24
 236:	08 2f       	mov	r16, r24
 238:	10 e0       	ldi	r17, 0x00	; 0
 23a:	20 e4       	ldi	r18, 0x40	; 64
 23c:	c2 2e       	mov	r12, r18
 23e:	d1 2c       	mov	r13, r1
 240:	c0 22       	and	r12, r16
 242:	d1 22       	and	r13, r17
 244:	86 ff       	sbrs	r24, 6
 246:	02 c0       	rjmp	.+4      	; 0x24c <can_get_message+0x2e>
 248:	80 e9       	ldi	r24, 0x90	; 144
 24a:	05 c0       	rjmp	.+10     	; 0x256 <can_get_message+0x38>
 24c:	87 fd       	sbrc	r24, 7
 24e:	02 c0       	rjmp	.+4      	; 0x254 <can_get_message+0x36>
 250:	80 e0       	ldi	r24, 0x00	; 0
 252:	38 c0       	rjmp	.+112    	; 0x2c4 <can_get_message+0xa6>
 254:	84 e9       	ldi	r24, 0x94	; 148
 256:	c4 98       	cbi	0x18, 4	; 24
 258:	0e 94 82 02 	call	0x504	; 0x504 <spi_putc>
 25c:	ce 01       	movw	r24, r28
 25e:	0e 94 30 02 	call	0x460	; 0x460 <mcp2515_read_id>
 262:	81 70       	andi	r24, 0x01	; 1
 264:	88 0f       	add	r24, r24
 266:	9c 81       	ldd	r25, Y+4	; 0x04
 268:	9d 7f       	andi	r25, 0xFD	; 253
 26a:	98 2b       	or	r25, r24
 26c:	9c 83       	std	Y+4, r25	; 0x04
 26e:	8f ef       	ldi	r24, 0xFF	; 255
 270:	0e 94 82 02 	call	0x504	; 0x504 <spi_putc>
 274:	93 e0       	ldi	r25, 0x03	; 3
 276:	16 95       	lsr	r17
 278:	07 95       	ror	r16
 27a:	9a 95       	dec	r25
 27c:	e1 f7       	brne	.-8      	; 0x276 <can_get_message+0x58>
 27e:	20 2f       	mov	r18, r16
 280:	21 70       	andi	r18, 0x01	; 1
 282:	9c 81       	ldd	r25, Y+4	; 0x04
 284:	9e 7f       	andi	r25, 0xFE	; 254
 286:	92 2b       	or	r25, r18
 288:	9c 83       	std	Y+4, r25	; 0x04
 28a:	08 2f       	mov	r16, r24
 28c:	0f 70       	andi	r16, 0x0F	; 15
 28e:	0d 83       	std	Y+5, r16	; 0x05
 290:	10 e0       	ldi	r17, 0x00	; 0
 292:	08 c0       	rjmp	.+16     	; 0x2a4 <can_get_message+0x86>
 294:	8f ef       	ldi	r24, 0xFF	; 255
 296:	0e 94 82 02 	call	0x504	; 0x504 <spi_putc>
 29a:	fe 01       	movw	r30, r28
 29c:	e1 0f       	add	r30, r17
 29e:	f1 1d       	adc	r31, r1
 2a0:	86 83       	std	Z+6, r24	; 0x06
 2a2:	1f 5f       	subi	r17, 0xFF	; 255
 2a4:	10 17       	cp	r17, r16
 2a6:	b0 f3       	brcs	.-20     	; 0x294 <can_get_message+0x76>
 2a8:	c4 9a       	sbi	0x18, 4	; 24
 2aa:	cd 28       	or	r12, r13
 2ac:	19 f0       	breq	.+6      	; 0x2b4 <can_get_message+0x96>
 2ae:	8c e2       	ldi	r24, 0x2C	; 44
 2b0:	61 e0       	ldi	r22, 0x01	; 1
 2b2:	02 c0       	rjmp	.+4      	; 0x2b8 <can_get_message+0x9a>
 2b4:	8c e2       	ldi	r24, 0x2C	; 44
 2b6:	62 e0       	ldi	r22, 0x02	; 2
 2b8:	40 e0       	ldi	r20, 0x00	; 0
 2ba:	0e 94 63 00 	call	0xc6	; 0xc6 <mcp2515_bit_modify>
 2be:	8f 2d       	mov	r24, r15
 2c0:	87 70       	andi	r24, 0x07	; 7
 2c2:	8f 5f       	subi	r24, 0xFF	; 255
 2c4:	df 91       	pop	r29
 2c6:	cf 91       	pop	r28
 2c8:	1f 91       	pop	r17
 2ca:	0f 91       	pop	r16
 2cc:	ff 90       	pop	r15
 2ce:	df 90       	pop	r13
 2d0:	cf 90       	pop	r12
 2d2:	08 95       	ret

000002d4 <can_send_message>:
 2d4:	ff 92       	push	r15
 2d6:	0f 93       	push	r16
 2d8:	1f 93       	push	r17
 2da:	cf 93       	push	r28
 2dc:	df 93       	push	r29
 2de:	ec 01       	movw	r28, r24
 2e0:	80 ea       	ldi	r24, 0xA0	; 160
 2e2:	0e 94 5b 00 	call	0xb6	; 0xb6 <mcp2515_read_status>
 2e6:	82 fd       	sbrc	r24, 2
 2e8:	02 c0       	rjmp	.+4      	; 0x2ee <can_send_message+0x1a>
 2ea:	ff 24       	eor	r15, r15
 2ec:	0b c0       	rjmp	.+22     	; 0x304 <can_send_message+0x30>
 2ee:	84 fd       	sbrc	r24, 4
 2f0:	03 c0       	rjmp	.+6      	; 0x2f8 <can_send_message+0x24>
 2f2:	92 e0       	ldi	r25, 0x02	; 2
 2f4:	f9 2e       	mov	r15, r25
 2f6:	06 c0       	rjmp	.+12     	; 0x304 <can_send_message+0x30>
 2f8:	86 ff       	sbrs	r24, 6
 2fa:	02 c0       	rjmp	.+4      	; 0x300 <can_send_message+0x2c>
 2fc:	ff 24       	eor	r15, r15
 2fe:	33 c0       	rjmp	.+102    	; 0x366 <can_send_message+0x92>
 300:	84 e0       	ldi	r24, 0x04	; 4
 302:	f8 2e       	mov	r15, r24
 304:	c4 98       	cbi	0x18, 4	; 24
 306:	8f 2d       	mov	r24, r15
 308:	80 64       	ori	r24, 0x40	; 64
 30a:	0e 94 82 02 	call	0x504	; 0x504 <spi_putc>
 30e:	6c 81       	ldd	r22, Y+4	; 0x04
 310:	66 95       	lsr	r22
 312:	61 70       	andi	r22, 0x01	; 1
 314:	ce 01       	movw	r24, r28
 316:	0e 94 f6 01 	call	0x3ec	; 0x3ec <mcp2515_write_id>
 31a:	0d 81       	ldd	r16, Y+5	; 0x05
 31c:	0f 70       	andi	r16, 0x0F	; 15
 31e:	8c 81       	ldd	r24, Y+4	; 0x04
 320:	80 ff       	sbrs	r24, 0
 322:	05 c0       	rjmp	.+10     	; 0x32e <can_send_message+0x5a>
 324:	80 2f       	mov	r24, r16
 326:	80 64       	ori	r24, 0x40	; 64
 328:	0e 94 82 02 	call	0x504	; 0x504 <spi_putc>
 32c:	0e c0       	rjmp	.+28     	; 0x34a <can_send_message+0x76>
 32e:	80 2f       	mov	r24, r16
 330:	0e 94 82 02 	call	0x504	; 0x504 <spi_putc>
 334:	10 e0       	ldi	r17, 0x00	; 0
 336:	07 c0       	rjmp	.+14     	; 0x346 <can_send_message+0x72>
 338:	fe 01       	movw	r30, r28
 33a:	e1 0f       	add	r30, r17
 33c:	f1 1d       	adc	r31, r1
 33e:	86 81       	ldd	r24, Z+6	; 0x06
 340:	0e 94 82 02 	call	0x504	; 0x504 <spi_putc>
 344:	1f 5f       	subi	r17, 0xFF	; 255
 346:	10 17       	cp	r17, r16
 348:	b8 f3       	brcs	.-18     	; 0x338 <can_send_message+0x64>
 34a:	c4 9a       	sbi	0x18, 4	; 24
 34c:	84 e0       	ldi	r24, 0x04	; 4
 34e:	8a 95       	dec	r24
 350:	f1 f7       	brne	.-4      	; 0x34e <can_send_message+0x7a>
 352:	c4 98       	cbi	0x18, 4	; 24
 354:	ff 20       	and	r15, r15
 356:	11 f4       	brne	.+4      	; 0x35c <can_send_message+0x88>
 358:	ff 24       	eor	r15, r15
 35a:	f3 94       	inc	r15
 35c:	8f 2d       	mov	r24, r15
 35e:	80 68       	ori	r24, 0x80	; 128
 360:	0e 94 82 02 	call	0x504	; 0x504 <spi_putc>
 364:	c4 9a       	sbi	0x18, 4	; 24
 366:	8f 2d       	mov	r24, r15
 368:	df 91       	pop	r29
 36a:	cf 91       	pop	r28
 36c:	1f 91       	pop	r17
 36e:	0f 91       	pop	r16
 370:	ff 90       	pop	r15
 372:	08 95       	ret

00000374 <can_static_filter>:
 374:	0f 93       	push	r16
 376:	1f 93       	push	r17
 378:	cf 93       	push	r28
 37a:	df 93       	push	r29
 37c:	ec 01       	movw	r28, r24
 37e:	8f e0       	ldi	r24, 0x0F	; 15
 380:	60 ee       	ldi	r22, 0xE0	; 224
 382:	40 e8       	ldi	r20, 0x80	; 128
 384:	0e 94 63 00 	call	0xc6	; 0xc6 <mcp2515_bit_modify>
 388:	8e e0       	ldi	r24, 0x0E	; 14
 38a:	0e 94 7b 00 	call	0xf6	; 0xf6 <mcp2515_read_register>
 38e:	80 7e       	andi	r24, 0xE0	; 224
 390:	80 38       	cpi	r24, 0x80	; 128
 392:	d1 f7       	brne	.-12     	; 0x388 <can_static_filter+0x14>
 394:	80 e6       	ldi	r24, 0x60	; 96
 396:	64 e0       	ldi	r22, 0x04	; 4
 398:	0e 94 8a 00 	call	0x114	; 0x114 <mcp2515_write_register>
 39c:	80 e7       	ldi	r24, 0x70	; 112
 39e:	60 e0       	ldi	r22, 0x00	; 0
 3a0:	0e 94 8a 00 	call	0x114	; 0x114 <mcp2515_write_register>
 3a4:	00 e0       	ldi	r16, 0x00	; 0
 3a6:	c4 98       	cbi	0x18, 4	; 24
 3a8:	82 e0       	ldi	r24, 0x02	; 2
 3aa:	0e 94 82 02 	call	0x504	; 0x504 <spi_putc>
 3ae:	80 2f       	mov	r24, r16
 3b0:	0e 94 82 02 	call	0x504	; 0x504 <spi_putc>
 3b4:	10 e0       	ldi	r17, 0x00	; 0
 3b6:	00 32       	cpi	r16, 0x20	; 32
 3b8:	11 f4       	brne	.+4      	; 0x3be <can_static_filter+0x4a>
 3ba:	18 30       	cpi	r17, 0x08	; 8
 3bc:	48 f4       	brcc	.+18     	; 0x3d0 <can_static_filter+0x5c>
 3be:	fe 01       	movw	r30, r28
 3c0:	21 96       	adiw	r28, 0x01	; 1
 3c2:	e4 91       	lpm	r30, Z+
 3c4:	8e 2f       	mov	r24, r30
 3c6:	0e 94 82 02 	call	0x504	; 0x504 <spi_putc>
 3ca:	1f 5f       	subi	r17, 0xFF	; 255
 3cc:	1c 30       	cpi	r17, 0x0C	; 12
 3ce:	99 f7       	brne	.-26     	; 0x3b6 <can_static_filter+0x42>
 3d0:	c4 9a       	sbi	0x18, 4	; 24
 3d2:	00 5f       	subi	r16, 0xF0	; 240
 3d4:	00 33       	cpi	r16, 0x30	; 48
 3d6:	39 f7       	brne	.-50     	; 0x3a6 <can_static_filter+0x32>
 3d8:	8f e0       	ldi	r24, 0x0F	; 15
 3da:	60 ee       	ldi	r22, 0xE0	; 224
 3dc:	40 e0       	ldi	r20, 0x00	; 0
 3de:	0e 94 63 00 	call	0xc6	; 0xc6 <mcp2515_bit_modify>
 3e2:	df 91       	pop	r29
 3e4:	cf 91       	pop	r28
 3e6:	1f 91       	pop	r17
 3e8:	0f 91       	pop	r16
 3ea:	08 95       	ret

000003ec <mcp2515_write_id>:
 3ec:	cf 93       	push	r28
 3ee:	df 93       	push	r29
 3f0:	ec 01       	movw	r28, r24
 3f2:	66 23       	and	r22, r22
 3f4:	d9 f0       	breq	.+54     	; 0x42c <mcp2515_write_id+0x40>
 3f6:	8a 81       	ldd	r24, Y+2	; 0x02
 3f8:	9b 81       	ldd	r25, Y+3	; 0x03
 3fa:	35 e0       	ldi	r19, 0x05	; 5
 3fc:	96 95       	lsr	r25
 3fe:	87 95       	ror	r24
 400:	3a 95       	dec	r19
 402:	e1 f7       	brne	.-8      	; 0x3fc <mcp2515_write_id+0x10>
 404:	8f b9       	out	0x0f, r24	; 15
 406:	9a 81       	ldd	r25, Y+2	; 0x02
 408:	77 9b       	sbis	0x0e, 7	; 14
 40a:	fe cf       	rjmp	.-4      	; 0x408 <mcp2515_write_id+0x1c>
 40c:	8f b1       	in	r24, 0x0f	; 15
 40e:	89 2f       	mov	r24, r25
 410:	88 0f       	add	r24, r24
 412:	88 0f       	add	r24, r24
 414:	88 0f       	add	r24, r24
 416:	80 7e       	andi	r24, 0xE0	; 224
 418:	88 60       	ori	r24, 0x08	; 8
 41a:	93 70       	andi	r25, 0x03	; 3
 41c:	89 2b       	or	r24, r25
 41e:	0e 94 82 02 	call	0x504	; 0x504 <spi_putc>
 422:	89 81       	ldd	r24, Y+1	; 0x01
 424:	0e 94 82 02 	call	0x504	; 0x504 <spi_putc>
 428:	88 81       	ld	r24, Y
 42a:	15 c0       	rjmp	.+42     	; 0x456 <mcp2515_write_id+0x6a>
 42c:	88 81       	ld	r24, Y
 42e:	99 81       	ldd	r25, Y+1	; 0x01
 430:	23 e0       	ldi	r18, 0x03	; 3
 432:	96 95       	lsr	r25
 434:	87 95       	ror	r24
 436:	2a 95       	dec	r18
 438:	e1 f7       	brne	.-8      	; 0x432 <mcp2515_write_id+0x46>
 43a:	8f b9       	out	0x0f, r24	; 15
 43c:	88 81       	ld	r24, Y
 43e:	77 9b       	sbis	0x0e, 7	; 14
 440:	fe cf       	rjmp	.-4      	; 0x43e <mcp2515_write_id+0x52>
 442:	9f b1       	in	r25, 0x0f	; 15
 444:	82 95       	swap	r24
 446:	88 0f       	add	r24, r24
 448:	80 7e       	andi	r24, 0xE0	; 224
 44a:	0e 94 82 02 	call	0x504	; 0x504 <spi_putc>
 44e:	80 e0       	ldi	r24, 0x00	; 0
 450:	0e 94 82 02 	call	0x504	; 0x504 <spi_putc>
 454:	80 e0       	ldi	r24, 0x00	; 0
 456:	0e 94 82 02 	call	0x504	; 0x504 <spi_putc>
 45a:	df 91       	pop	r29
 45c:	cf 91       	pop	r28
 45e:	08 95       	ret

00000460 <mcp2515_read_id>:
 460:	1f 93       	push	r17
 462:	cf 93       	push	r28
 464:	df 93       	push	r29
 466:	ec 01       	movw	r28, r24
 468:	8f ef       	ldi	r24, 0xFF	; 255
 46a:	0e 94 82 02 	call	0x504	; 0x504 <spi_putc>
 46e:	18 2f       	mov	r17, r24
 470:	8f ef       	ldi	r24, 0xFF	; 255
 472:	0e 94 82 02 	call	0x504	; 0x504 <spi_putc>
 476:	48 2f       	mov	r20, r24
 478:	21 2f       	mov	r18, r17
 47a:	30 e0       	ldi	r19, 0x00	; 0
 47c:	83 ff       	sbrs	r24, 3
 47e:	1f c0       	rjmp	.+62     	; 0x4be <mcp2515_read_id+0x5e>
 480:	8f ef       	ldi	r24, 0xFF	; 255
 482:	8f b9       	out	0x0f, r24	; 15
 484:	95 e0       	ldi	r25, 0x05	; 5
 486:	22 0f       	add	r18, r18
 488:	33 1f       	adc	r19, r19
 48a:	9a 95       	dec	r25
 48c:	e1 f7       	brne	.-8      	; 0x486 <mcp2515_read_id+0x26>
 48e:	3b 83       	std	Y+3, r19	; 0x03
 490:	2a 83       	std	Y+2, r18	; 0x02
 492:	77 9b       	sbis	0x0e, 7	; 14
 494:	fe cf       	rjmp	.-4      	; 0x492 <mcp2515_read_id+0x32>
 496:	8f b1       	in	r24, 0x0f	; 15
 498:	89 83       	std	Y+1, r24	; 0x01
 49a:	8f ef       	ldi	r24, 0xFF	; 255
 49c:	8f b9       	out	0x0f, r24	; 15
 49e:	84 2f       	mov	r24, r20
 4a0:	83 70       	andi	r24, 0x03	; 3
 4a2:	9a 81       	ldd	r25, Y+2	; 0x02
 4a4:	89 2b       	or	r24, r25
 4a6:	46 95       	lsr	r20
 4a8:	46 95       	lsr	r20
 4aa:	46 95       	lsr	r20
 4ac:	4c 71       	andi	r20, 0x1C	; 28
 4ae:	84 2b       	or	r24, r20
 4b0:	8a 83       	std	Y+2, r24	; 0x02
 4b2:	77 9b       	sbis	0x0e, 7	; 14
 4b4:	fe cf       	rjmp	.-4      	; 0x4b2 <mcp2515_read_id+0x52>
 4b6:	8f b1       	in	r24, 0x0f	; 15
 4b8:	88 83       	st	Y, r24
 4ba:	81 e0       	ldi	r24, 0x01	; 1
 4bc:	1a c0       	rjmp	.+52     	; 0x4f2 <mcp2515_read_id+0x92>
 4be:	8f ef       	ldi	r24, 0xFF	; 255
 4c0:	8f b9       	out	0x0f, r24	; 15
 4c2:	1b 82       	std	Y+3, r1	; 0x03
 4c4:	1a 82       	std	Y+2, r1	; 0x02
 4c6:	83 e0       	ldi	r24, 0x03	; 3
 4c8:	22 0f       	add	r18, r18
 4ca:	33 1f       	adc	r19, r19
 4cc:	8a 95       	dec	r24
 4ce:	e1 f7       	brne	.-8      	; 0x4c8 <mcp2515_read_id+0x68>
 4d0:	39 83       	std	Y+1, r19	; 0x01
 4d2:	28 83       	st	Y, r18
 4d4:	77 9b       	sbis	0x0e, 7	; 14
 4d6:	fe cf       	rjmp	.-4      	; 0x4d4 <mcp2515_read_id+0x74>
 4d8:	8f b1       	in	r24, 0x0f	; 15
 4da:	8f ef       	ldi	r24, 0xFF	; 255
 4dc:	8f b9       	out	0x0f, r24	; 15
 4de:	42 95       	swap	r20
 4e0:	46 95       	lsr	r20
 4e2:	47 70       	andi	r20, 0x07	; 7
 4e4:	88 81       	ld	r24, Y
 4e6:	84 2b       	or	r24, r20
 4e8:	88 83       	st	Y, r24
 4ea:	77 9b       	sbis	0x0e, 7	; 14
 4ec:	fe cf       	rjmp	.-4      	; 0x4ea <mcp2515_read_id+0x8a>
 4ee:	8f b1       	in	r24, 0x0f	; 15
 4f0:	80 e0       	ldi	r24, 0x00	; 0
 4f2:	df 91       	pop	r29
 4f4:	cf 91       	pop	r28
 4f6:	1f 91       	pop	r17
 4f8:	08 95       	ret

000004fa <mcp2515_spi_init>:
 4fa:	81 e5       	ldi	r24, 0x51	; 81
 4fc:	8d b9       	out	0x0d, r24	; 13
 4fe:	81 e0       	ldi	r24, 0x01	; 1
 500:	8e b9       	out	0x0e, r24	; 14
 502:	08 95       	ret

00000504 <spi_putc>:
 504:	8f b9       	out	0x0f, r24	; 15
 506:	77 9b       	sbis	0x0e, 7	; 14
 508:	fe cf       	rjmp	.-4      	; 0x506 <spi_putc+0x2>
 50a:	8f b1       	in	r24, 0x0f	; 15
 50c:	08 95       	ret

0000050e <main>:

// -----------------------------------------------------------------------------
// Main loop for receiving and sending messages.

int main(void)
{
 50e:	cf 93       	push	r28
 510:	df 93       	push	r29
 512:	cd b7       	in	r28, 0x3d	; 61
 514:	de b7       	in	r29, 0x3e	; 62
 516:	6c 97       	sbiw	r28, 0x1c	; 28
 518:	0f b6       	in	r0, 0x3f	; 63
 51a:	f8 94       	cli
 51c:	de bf       	out	0x3e, r29	; 62
 51e:	0f be       	out	0x3f, r0	; 63
 520:	cd bf       	out	0x3d, r28	; 61
	// Initialize MCP2515
	can_init(BITRATE_125_KBPS);
 522:	84 e0       	ldi	r24, 0x04	; 4
 524:	0e 94 9c 00 	call	0x138	; 0x138 <can_init>
	
	// Load filters and masks
	can_static_filter(can_filter);
 528:	80 e0       	ldi	r24, 0x00	; 0
 52a:	91 e0       	ldi	r25, 0x01	; 1
 52c:	0e 94 ba 01 	call	0x374	; 0x374 <can_static_filter>
	
	// Create a test messsage
	can_t msg;
	
	msg.id = 0x123456;
 530:	86 e5       	ldi	r24, 0x56	; 86
 532:	94 e3       	ldi	r25, 0x34	; 52
 534:	a2 e1       	ldi	r26, 0x12	; 18
 536:	b0 e0       	ldi	r27, 0x00	; 0
 538:	8f 87       	std	Y+15, r24	; 0x0f
 53a:	98 8b       	std	Y+16, r25	; 0x10
 53c:	a9 8b       	std	Y+17, r26	; 0x11
 53e:	ba 8b       	std	Y+18, r27	; 0x12
	msg.flags.rtr = 0;
 540:	8b 89       	ldd	r24, Y+19	; 0x13
	msg.flags.extended = 1;
 542:	8e 7f       	andi	r24, 0xFE	; 254
 544:	82 60       	ori	r24, 0x02	; 2
 546:	8b 8b       	std	Y+19, r24	; 0x13
	
	msg.length = 4;
 548:	84 e0       	ldi	r24, 0x04	; 4
 54a:	8c 8b       	std	Y+20, r24	; 0x14
	msg.data[0] = 0xde;
 54c:	8e ed       	ldi	r24, 0xDE	; 222
 54e:	8d 8b       	std	Y+21, r24	; 0x15
	msg.data[1] = 0xad;
 550:	8d ea       	ldi	r24, 0xAD	; 173
 552:	8e 8b       	std	Y+22, r24	; 0x16
	msg.data[2] = 0xbe;
 554:	8e eb       	ldi	r24, 0xBE	; 190
 556:	8f 8b       	std	Y+23, r24	; 0x17
	msg.data[3] = 0xef;
 558:	8f ee       	ldi	r24, 0xEF	; 239
 55a:	88 8f       	std	Y+24, r24	; 0x18
	
	// Send the message
	can_send_message(&msg);
 55c:	ce 01       	movw	r24, r28
 55e:	0f 96       	adiw	r24, 0x0f	; 15
 560:	0e 94 6a 01 	call	0x2d4	; 0x2d4 <can_send_message>
	
	while (1)
	{
		// Check if a new messag was received
		if (can_check_message())
 564:	0e 94 ff 00 	call	0x1fe	; 0x1fe <can_check_message>
 568:	88 23       	and	r24, r24
 56a:	e1 f3       	breq	.-8      	; 0x564 <main+0x56>
		{
			can_t msg;
			
			// Try to read the message
			if (can_get_message(&msg))
 56c:	ce 01       	movw	r24, r28
 56e:	01 96       	adiw	r24, 0x01	; 1
 570:	0e 94 0f 01 	call	0x21e	; 0x21e <can_get_message>
 574:	88 23       	and	r24, r24
 576:	b1 f3       	breq	.-20     	; 0x564 <main+0x56>
			{
				// If we received a message resend it with a different id
				msg.id += 10;
 578:	89 81       	ldd	r24, Y+1	; 0x01
 57a:	9a 81       	ldd	r25, Y+2	; 0x02
 57c:	ab 81       	ldd	r26, Y+3	; 0x03
 57e:	bc 81       	ldd	r27, Y+4	; 0x04
 580:	0a 96       	adiw	r24, 0x0a	; 10
 582:	a1 1d       	adc	r26, r1
 584:	b1 1d       	adc	r27, r1
 586:	89 83       	std	Y+1, r24	; 0x01
 588:	9a 83       	std	Y+2, r25	; 0x02
 58a:	ab 83       	std	Y+3, r26	; 0x03
 58c:	bc 83       	std	Y+4, r27	; 0x04
				
				// Send the new message
				can_send_message(&msg);
 58e:	ce 01       	movw	r24, r28
 590:	01 96       	adiw	r24, 0x01	; 1
 592:	e6 cf       	rjmp	.-52     	; 0x560 <main+0x52>

00000594 <_exit>:
 594:	f8 94       	cli

00000596 <__stop_program>:
 596:	ff cf       	rjmp	.-2      	; 0x596 <__stop_program>
